; Function Attrs: mustprogress nounwind uwtable
define hidden noundef zeroext i1 @_ZN14TaskTerminator16exit_terminationEmP20TerminatorTerminator(ptr nocapture noundef nonnull readnone align 8 dereferenceable(384) %0, i64 noundef %1, ptr noundef %2) local_unnamed_addr #2 align 2 {
  %.not = icmp eq i64 %1, 0
  br i1 %.not, label %4, label %9

4:                                                ; preds = %3
  %.not2 = icmp eq ptr %2, null
  br i1 %.not2, label %9, label %5

5:                                                ; preds = %4
  %6 = load ptr, ptr %2, align 8
  %7 = load ptr, ptr %6, align 8
  %8 = tail call noundef zeroext i1 %7(ptr noundef nonnull align 8 dereferenceable(8) %2) #8
  br label %9

9:                                                ; preds = %4, %5, %3
  %10 = phi i1 [ true, %3 ], [ false, %4 ], [ %8, %5 ]
  ret i1 %10
}